target datalayout = "e-m:e-p270:32:32-p271:32:32-p272:64:64-i64:64-i128:128-f80:128-n8:16:32:64-S128"
target triple = "x86_64-pc-linux-gnu"

%struct.conf_method_st = type { ptr, ptr, ptr, ptr, ptr, ptr, ptr, ptr, ptr, ptr }
%struct.conf_st = type { ptr, ptr, ptr, i32, i32, ptr, ptr }

@.str.1 = private unnamed_addr constant [34 x i8] c"../openssl/crypto/conf/conf_lib.c\00", align 1
@__func__.NCONF_get_string = private unnamed_addr constant [17 x i8] c"NCONF_get_string\00", align 1
@.str.2 = private unnamed_addr constant [17 x i8] c"group=%s name=%s\00", align 1
@__func__.NCONF_get_number_e = private unnamed_addr constant [19 x i8] c"NCONF_get_number_e\00", align 1

; Function Attrs: nounwind uwtable
define ptr @NCONF_get_string(ptr noundef %0, ptr noundef %1, ptr noundef %2) #0 {
  %4 = alloca ptr, align 8
  %5 = alloca ptr, align 8
  %6 = alloca ptr, align 8
  %7 = alloca ptr, align 8
  %8 = alloca ptr, align 8
  %9 = alloca i32, align 4
  store ptr %0, ptr %5, align 8, !tbaa !3
  store ptr %1, ptr %6, align 8, !tbaa !19
  store ptr %2, ptr %7, align 8, !tbaa !19
  call void @llvm.lifetime.start.p0(i64 8, ptr %8) #8
  %10 = load ptr, ptr %5, align 8, !tbaa !3
  %11 = load ptr, ptr %6, align 8, !tbaa !19
  %12 = load ptr, ptr %7, align 8, !tbaa !19
  %13 = call ptr @_CONF_get_string(ptr noundef %10, ptr noundef %11, ptr noundef %12)
  store ptr %13, ptr %8, align 8, !tbaa !19
  %14 = load ptr, ptr %8, align 8, !tbaa !19
  %15 = icmp ne ptr %14, null
  br i1 %15, label %16, label %18

16:                                               ; preds = %3
  %17 = load ptr, ptr %8, align 8, !tbaa !19
  store ptr %17, ptr %4, align 8
  store i32 1, ptr %9, align 4
  br label %25

18:                                               ; preds = %3
  %19 = load ptr, ptr %5, align 8, !tbaa !3
  %20 = icmp eq ptr %19, null
  br i1 %20, label %21, label %22

21:                                               ; preds = %18
  call void @ERR_new()
  call void @ERR_set_debug(ptr noundef @.str.1, i32 noundef 313, ptr noundef @__func__.NCONF_get_string)
  call void (i32, i32, ptr, ...) @ERR_set_error(i32 noundef 14, i32 noundef 106, ptr noundef null)
  store ptr null, ptr %4, align 8
  store i32 1, ptr %9, align 4
  br label %25

22:                                               ; preds = %18
  call void @ERR_new()
  call void @ERR_set_debug(ptr noundef @.str.1, i32 noundef 316, ptr noundef @__func__.NCONF_get_string)
  %23 = load ptr, ptr %6, align 8, !tbaa !19
  %24 = load ptr, ptr %7, align 8, !tbaa !19
  call void (i32, i32, ptr, ...) @ERR_set_error(i32 noundef 14, i32 noundef 108, ptr noundef @.str.2, ptr noundef %23, ptr noundef %24)
  store ptr null, ptr %4, align 8
  store i32 1, ptr %9, align 4
  br label %25

25:                                               ; preds = %22, %21, %16
  call void @llvm.lifetime.end.p0(i64 8, ptr %8) #8
  %26 = load ptr, ptr %4, align 8
  ret ptr %26
}

; Function Attrs: nounwind uwtable
define i32 @NCONF_get_number_e(ptr noundef %0, ptr noundef %1, ptr noundef %2, ptr noundef %3) #0 {
  %5 = alloca i32, align 4
  %6 = alloca ptr, align 8
  %7 = alloca ptr, align 8
  %8 = alloca ptr, align 8
  %9 = alloca ptr, align 8
  %10 = alloca ptr, align 8
  %11 = alloca i64, align 8
  %12 = alloca ptr, align 8
  %13 = alloca ptr, align 8
  %14 = alloca i32, align 4
  %15 = alloca i32, align 4
  store ptr %0, ptr %6, align 8, !tbaa !3
  store ptr %1, ptr %7, align 8, !tbaa !19
  store ptr %2, ptr %8, align 8, !tbaa !19
  store ptr %3, ptr %9, align 8, !tbaa !20
  call void @llvm.lifetime.start.p0(i64 8, ptr %10) #8
  call void @llvm.lifetime.start.p0(i64 8, ptr %11) #8
  call void @llvm.lifetime.start.p0(i64 8, ptr %12) #8
  store ptr @default_is_number, ptr %12, align 8, !tbaa !31
  call void @llvm.lifetime.start.p0(i64 8, ptr %13) #8
  store ptr @default_to_int, ptr %13, align 8, !tbaa !31
  %16 = load ptr, ptr %9, align 8, !tbaa !20
  %17 = icmp eq ptr %16, null
  br i1 %17, label %18, label %19

18:                                               ; preds = %4
  call void @ERR_new()
  call void @ERR_set_debug(ptr noundef @.str.1, i32 noundef 340, ptr noundef @__func__.NCONF_get_number_e)
  call void (i32, i32, ptr, ...) @ERR_set_error(i32 noundef 14, i32 noundef 786690, ptr noundef null)
  store i32 0, ptr %5, align 4
  store i32 1, ptr %14, align 4
  br label %93

19:                                               ; preds = %4
  %20 = load ptr, ptr %6, align 8, !tbaa !3
  %21 = load ptr, ptr %7, align 8, !tbaa !19
  %22 = load ptr, ptr %8, align 8, !tbaa !19
  %23 = call ptr @NCONF_get_string(ptr noundef %20, ptr noundef %21, ptr noundef %22)
  store ptr %23, ptr %10, align 8, !tbaa !19
  %24 = load ptr, ptr %10, align 8, !tbaa !19
  %25 = icmp eq ptr %24, null
  br i1 %25, label %26, label %27

26:                                               ; preds = %19
  store i32 0, ptr %5, align 4
  store i32 1, ptr %14, align 4
  br label %93

27:                                               ; preds = %19
  %28 = load ptr, ptr %6, align 8, !tbaa !3
  %29 = icmp ne ptr %28, null
  br i1 %29, label %30, label %57

30:                                               ; preds = %27
  %31 = load ptr, ptr %6, align 8, !tbaa !3
  %32 = getelementptr inbounds nuw %struct.conf_st, ptr %31, i32 0, i32 0
  %33 = load ptr, ptr %32, align 8, !tbaa !27
  %34 = getelementptr inbounds nuw %struct.conf_method_st, ptr %33, i32 0, i32 7
  %35 = load ptr, ptr %34, align 8, !tbaa !32
  %36 = icmp ne ptr %35, null
  br i1 %36, label %37, label %43

37:                                               ; preds = %30
  %38 = load ptr, ptr %6, align 8, !tbaa !3
  %39 = getelementptr inbounds nuw %struct.conf_st, ptr %38, i32 0, i32 0
  %40 = load ptr, ptr %39, align 8, !tbaa !27
  %41 = getelementptr inbounds nuw %struct.conf_method_st, ptr %40, i32 0, i32 7
  %42 = load ptr, ptr %41, align 8, !tbaa !32
  store ptr %42, ptr %12, align 8, !tbaa !31
  br label %43

43:                                               ; preds = %37, %30
  %44 = load ptr, ptr %6, align 8, !tbaa !3
  %45 = getelementptr inbounds nuw %struct.conf_st, ptr %44, i32 0, i32 0
  %46 = load ptr, ptr %45, align 8, !tbaa !27
  %47 = getelementptr inbounds nuw %struct.conf_method_st, ptr %46, i32 0, i32 8
  %48 = load ptr, ptr %47, align 8, !tbaa !33
  %49 = icmp ne ptr %48, null
  br i1 %49, label %50, label %56

50:                                               ; preds = %43
  %51 = load ptr, ptr %6, align 8, !tbaa !3
  %52 = getelementptr inbounds nuw %struct.conf_st, ptr %51, i32 0, i32 0
  %53 = load ptr, ptr %52, align 8, !tbaa !27
  %54 = getelementptr inbounds nuw %struct.conf_method_st, ptr %53, i32 0, i32 8
  %55 = load ptr, ptr %54, align 8, !tbaa !33
  store ptr %55, ptr %13, align 8, !tbaa !31
  br label %56

56:                                               ; preds = %50, %43
  br label %57

57:                                               ; preds = %56, %27
  store i64 0, ptr %11, align 8, !tbaa !29
  br label %58

58:                                               ; preds = %87, %57
  %59 = load ptr, ptr %12, align 8, !tbaa !31
  %60 = load ptr, ptr %6, align 8, !tbaa !3
  %61 = load ptr, ptr %10, align 8, !tbaa !19
  %62 = load i8, ptr %61, align 1, !tbaa !34
  %63 = call i32 %59(ptr noundef %60, i8 noundef signext %62)
  %64 = icmp ne i32 %63, 0
  br i1 %64, label %65, label %90

65:                                               ; preds = %58
  call void @llvm.lifetime.start.p0(i64 4, ptr %15) #8
  %66 = load ptr, ptr %13, align 8, !tbaa !31
  %67 = load ptr, ptr %6, align 8, !tbaa !3
  %68 = load ptr, ptr %10, align 8, !tbaa !19
  %69 = load i8, ptr %68, align 1, !tbaa !34
  %70 = call i32 %66(ptr noundef %67, i8 noundef signext %69)
  store i32 %70, ptr %15, align 4, !tbaa !24
  %71 = load i64, ptr %11, align 8, !tbaa !29
  %72 = load i32, ptr %15, align 4, !tbaa !24
  %73 = sext i32 %72 to i64
  %74 = sub nsw i64 9223372036854775807, %73
  %75 = sdiv i64 %74, 10
  %76 = icmp sgt i64 %71, %75
  br i1 %76, label %77, label %78

77:                                               ; preds = %65
  call void @ERR_new()
  call void @ERR_set_debug(ptr noundef @.str.1, i32 noundef 359, ptr noundef @__func__.NCONF_get_number_e)
  call void (i32, i32, ptr, ...) @ERR_set_error(i32 noundef 14, i32 noundef 121, ptr noundef null)
  store i32 0, ptr %5, align 4
  store i32 1, ptr %14, align 4
  br label %84

78:                                               ; preds = %65
  %79 = load i64, ptr %11, align 8, !tbaa !29
  %80 = mul nsw i64 %79, 10
  %81 = load i32, ptr %15, align 4, !tbaa !24
  %82 = sext i32 %81 to i64
  %83 = add nsw i64 %80, %82
  store i64 %83, ptr %11, align 8, !tbaa !29
  store i32 0, ptr %14, align 4
  br label %84

84:                                               ; preds = %78, %77
  call void @llvm.lifetime.end.p0(i64 4, ptr %15) #8
  %85 = load i32, ptr %14, align 4
  switch i32 %85, label %93 [
    i32 0, label %86
  ]

86:                                               ; preds = %84
  br label %87

87:                                               ; preds = %86
  %88 = load ptr, ptr %10, align 8, !tbaa !19
  %89 = getelementptr inbounds nuw i8, ptr %88, i32 1
  store ptr %89, ptr %10, align 8, !tbaa !19
  br label %58, !llvm.loop !35

90:                                               ; preds = %58
  %91 = load i64, ptr %11, align 8, !tbaa !29
  %92 = load ptr, ptr %9, align 8, !tbaa !20
  store i64 %91, ptr %92, align 8, !tbaa !29
  store i32 1, ptr %5, align 4
  store i32 1, ptr %14, align 4
  br label %93

93:                                               ; preds = %90, %84, %26, %18
  call void @llvm.lifetime.end.p0(i64 8, ptr %13) #8
  call void @llvm.lifetime.end.p0(i64 8, ptr %12) #8
  call void @llvm.lifetime.end.p0(i64 8, ptr %11) #8
  call void @llvm.lifetime.end.p0(i64 8, ptr %10) #8
  %94 = load i32, ptr %5, align 4
  ret i32 %94
}