; Function Attrs: nounwind uwtable
define range(i32 0, 2) i32 @NCONF_get_number_e(ptr noundef %0, ptr noundef %1, ptr noundef %2, ptr noundef writeonly captures(address_is_null) %3) local_unnamed_addr #0 {
  %5 = icmp eq ptr %3, null
  br i1 %5, label %6, label %7

6:                                                ; preds = %4
  tail call void @ERR_new() #15
  tail call void @ERR_set_debug(ptr noundef nonnull @.str.1, i32 noundef 340, ptr noundef nonnull @__func__.NCONF_get_number_e) #15
  tail call void (i32, i32, ptr, ...) @ERR_set_error(i32 noundef 14, i32 noundef 786690, ptr noundef null) #15
  br label %NCONF_get_string.exit.thread

7:                                                ; preds = %4
  %8 = tail call ptr @_CONF_get_string(ptr noundef %0, ptr noundef %1, ptr noundef %2) #15
  %.not.i = icmp eq ptr %8, null
  %9 = icmp eq ptr %0, null
  br i1 %.not.i, label %10, label %NCONF_get_string.exit

10:                                               ; preds = %7
  tail call void @ERR_new() #15
  br i1 %9, label %11, label %12

11:                                               ; preds = %10
  tail call void @ERR_set_debug(ptr noundef nonnull @.str.1, i32 noundef 313, ptr noundef nonnull @__func__.NCONF_get_string) #15
  tail call void (i32, i32, ptr, ...) @ERR_set_error(i32 noundef 14, i32 noundef 106, ptr noundef null) #15
  br label %NCONF_get_string.exit.thread

12:                                               ; preds = %10
  tail call void @ERR_set_debug(ptr noundef nonnull @.str.1, i32 noundef 316, ptr noundef nonnull @__func__.NCONF_get_string) #15
  tail call void (i32, i32, ptr, ...) @ERR_set_error(i32 noundef 14, i32 noundef 108, ptr noundef nonnull @.str.2, ptr noundef %1, ptr noundef %2) #15
  br label %NCONF_get_string.exit.thread

NCONF_get_string.exit:                            ; preds = %7
  br i1 %9, label %19, label %13

13:                                               ; preds = %NCONF_get_string.exit
  %14 = load ptr, ptr %0, align 8, !tbaa !16
  %15 = getelementptr inbounds nuw i8, ptr %14, i64 56
  %16 = load ptr, ptr %15, align 8, !tbaa !23
  %.not36 = icmp eq ptr %16, null
  %spec.select = select i1 %.not36, ptr @default_is_number, ptr %16
  %17 = getelementptr inbounds nuw i8, ptr %14, i64 64
  %18 = load ptr, ptr %17, align 8, !tbaa !24
  %.not37 = icmp eq ptr %18, null
  %spec.select40 = select i1 %.not37, ptr @default_to_int, ptr %18
  br label %19

19:                                               ; preds = %13, %NCONF_get_string.exit
  %.026 = phi ptr [ @default_is_number, %NCONF_get_string.exit ], [ %spec.select, %13 ]
  %.025 = phi ptr [ @default_to_int, %NCONF_get_string.exit ], [ %spec.select40, %13 ]
  %20 = load i8, ptr %8, align 1, !tbaa !20
  %21 = tail call i32 %.026(ptr noundef %0, i8 noundef signext %20) #15
  %.not3843 = icmp eq i32 %21, 0
  br i1 %.not3843, label %._crit_edge, label %.lr.ph

.lr.ph:                                           ; preds = %19, %27
  %.02845 = phi i64 [ %29, %27 ], [ 0, %19 ]
  %.03044 = phi ptr [ %30, %27 ], [ %8, %19 ]
  %22 = load i8, ptr %.03044, align 1, !tbaa !20
  %23 = tail call i32 %.025(ptr noundef %0, i8 noundef signext %22) #15
  %24 = sext i32 %23 to i64
  %25 = sub nsw i64 9223372036854775807, %24
  %26 = udiv i64 %25, 10
  %.not39 = icmp sgt i64 %.02845, %26
  br i1 %.not39, label %.thread, label %27

.thread:                                          ; preds = %.lr.ph
  tail call void @ERR_new() #15
  tail call void @ERR_set_debug(ptr noundef nonnull @.str.1, i32 noundef 359, ptr noundef nonnull @__func__.NCONF_get_number_e) #15
  tail call void (i32, i32, ptr, ...) @ERR_set_error(i32 noundef 14, i32 noundef 121, ptr noundef null) #15
  br label %NCONF_get_string.exit.thread

27:                                               ; preds = %.lr.ph
  %28 = mul nsw i64 %.02845, 10
  %29 = add nsw i64 %28, %24
  %30 = getelementptr inbounds nuw i8, ptr %.03044, i64 1
  %31 = load i8, ptr %30, align 1, !tbaa !20
  %32 = tail call i32 %.026(ptr noundef %0, i8 noundef signext %31) #15
  %.not38 = icmp eq i32 %32, 0
  br i1 %.not38, label %._crit_edge, label %.lr.ph, !llvm.loop !21

._crit_edge:                                      ; preds = %27, %19
  %.028.lcssa = phi i64 [ 0, %19 ], [ %29, %27 ]
  store i64 %.028.lcssa, ptr %3, align 8, !tbaa !18
  br label %NCONF_get_string.exit.thread

NCONF_get_string.exit.thread:                     ; preds = %12, %11, %.thread, %._crit_edge, %6
  %.0 = phi i32 [ 0, %6 ], [ 1, %._crit_edge ], [ 0, %.thread ], [ 0, %11 ], [ 0, %12 ]
  ret i32 %.0
}